; Function Attrs: nounwind uwtable
define void @aagpush_buffer_state(ptr noundef %0) local_unnamed_addr #1 {
  %2 = icmp eq ptr %0, null
  br i1 %2, label %44, label %3

3:                                                ; preds = %1
  %4 = load ptr, ptr @yy_buffer_stack, align 8
  %.not.i = icmp eq ptr %4, null
  br i1 %.not.i, label %5, label %9

5:                                                ; preds = %3
  %6 = tail call noalias noundef dereferenceable_or_null(8) ptr @malloc(i64 noundef 8) #25
  store ptr %6, ptr @yy_buffer_stack, align 8
  %.not9.i = icmp eq ptr %6, null
  br i1 %.not9.i, label %7, label %8

7:                                                ; preds = %5
  tail call fastcc void @yy_fatal_error(ptr noundef nonnull @.str.27) #26
  unreachable

8:                                                ; preds = %5
  store i64 0, ptr %6, align 8
  store i64 1, ptr @yy_buffer_stack_max, align 8
  store i64 0, ptr @yy_buffer_stack_top, align 8
  br label %aagensure_buffer_stack.exit

9:                                                ; preds = %3
  %10 = load i64, ptr @yy_buffer_stack_top, align 8
  %11 = load i64, ptr @yy_buffer_stack_max, align 8
  %12 = add i64 %11, -1
  %.not10.i = icmp ult i64 %10, %12
  br i1 %.not10.i, label %aagensure_buffer_stack.exit, label %13

13:                                               ; preds = %9
  %14 = add i64 %11, 8
  %15 = shl i64 %14, 3
  %16 = tail call noalias noundef ptr @realloc(ptr noundef nonnull %4, i64 noundef %15) #27
  store ptr %16, ptr @yy_buffer_stack, align 8
  %.not11.i = icmp eq ptr %16, null
  br i1 %.not11.i, label %17, label %18

17:                                               ; preds = %13
  tail call fastcc void @yy_fatal_error(ptr noundef nonnull @.str.27) #26
  unreachable

18:                                               ; preds = %13
  %19 = getelementptr inbounds ptr, ptr %16, i64 %11
  tail call void @llvm.memset.p0.i64(ptr noundef nonnull align 8 dereferenceable(64) %19, i8 0, i64 64, i1 false)
  store i64 %14, ptr @yy_buffer_stack_max, align 8
  br label %aagensure_buffer_stack.exit

aagensure_buffer_stack.exit:                      ; preds = %18, %9, %8
  %20 = phi i64 [ 0, %8 ], [ %10, %9 ], [ %10, %18 ]
  %21 = phi ptr [ %6, %8 ], [ %4, %9 ], [ %16, %18 ]
  %22 = getelementptr inbounds ptr, ptr %21, i64 %20
  %23 = load ptr, ptr %22, align 8
  %.not4 = icmp eq ptr %23, null
  br i1 %.not4, label %.thread, label %24

24:                                               ; preds = %aagensure_buffer_stack.exit
  %25 = load i8, ptr @yy_hold_char, align 1
  %26 = load ptr, ptr @yy_c_buf_p, align 8
  store i8 %25, ptr %26, align 1
  %27 = load ptr, ptr %22, align 8
  %28 = getelementptr inbounds nuw i8, ptr %27, i64 16
  store ptr %26, ptr %28, align 8
  %29 = load i32, ptr @yy_n_chars, align 4
  %30 = load ptr, ptr %22, align 8
  %31 = getelementptr inbounds nuw i8, ptr %30, i64 28
  store i32 %29, ptr %31, align 4
  %.pre = load ptr, ptr %22, align 8
  %32 = icmp eq ptr %.pre, null
  br i1 %32, label %.thread, label %33

33:                                               ; preds = %24
  %34 = add i64 %20, 1
  store i64 %34, ptr @yy_buffer_stack_top, align 8
  br label %.thread

.thread:                                          ; preds = %aagensure_buffer_stack.exit, %33, %24
  %35 = phi i64 [ %34, %33 ], [ %20, %24 ], [ %20, %aagensure_buffer_stack.exit ]
  %36 = getelementptr inbounds ptr, ptr %21, i64 %35
  store ptr %0, ptr %36, align 8
  %37 = getelementptr inbounds nuw i8, ptr %0, i64 28
  %38 = load i32, ptr %37, align 4
  store i32 %38, ptr @yy_n_chars, align 4
  %39 = getelementptr inbounds nuw i8, ptr %0, i64 16
  %40 = load ptr, ptr %39, align 8
  store ptr %40, ptr @yy_c_buf_p, align 8
  store ptr %40, ptr @aagtext, align 8
  %41 = load ptr, ptr %36, align 8
  %42 = load ptr, ptr %41, align 8
  store ptr %42, ptr @aagin, align 8
  %43 = load i8, ptr %40, align 1
  store i8 %43, ptr @yy_hold_char, align 1
  br label %44

44:                                               ; preds = %1, %.thread
  ret void
}